Certificate:
    Data:
        Version: 3 (0x2)
        Serial Number: 1 (0x1)
    Signature Algorithm: sha256WithRSAEncryption
        Issuer: C=US, ST=Unset, L=Unset, O=Unset, CN=www.example.com
        Validity
            Not Before: Sep 25 15:20:46 2015 GMT
            Not After : Sep 22 15:20:46 2025 GMT
        Subject: C=US, ST=Unset, O=Unset, CN=www.example.com
        Subject Public Key Info:
            Public Key Algorithm: rsaEncryption
                Public-Key: (2048 bit)
                Modulus:
                    00:db:68:fe:70:a6:df:ab:e1:06:c1:8e:07:b5:50:
                    77:13:8f:7b:68:26:5d:a2:26:e4:3f:4a:e8:1c:4b:
                    8b:bc:72:88:8e:0d:99:33:62:54:a5:70:d4:02:4f:
                    70:e0:c3:6b:12:18:74:9f:18:4b:e1:34:2d:1e:96:
                    93:76:65:76:19:e1:80:23:3d:a2:58:12:01:21:b0:
                    cb:17:21:15:86:c2:a4:98:ac:51:7c:c7:92:64:76:
                    11:f5:fa:16:f0:71:c0:5d:b0:92:90:09:4e:3d:6a:
                    ba:af:db:fa:34:d7:f9:ae:7b:2a:9c:e2:6e:e9:97:
                    13:c2:f1:25:7b:a4:e2:45:0d:c9:9e:85:1b:bb:28:
                    30:ce:78:b7:16:9b:1a:0e:3e:4b:87:f3:1b:fc:8a:
                    c8:30:50:d7:31:41:de:82:dc:cf:00:ff:10:73:89:
                    a9:c1:f3:4a:c8:6d:a0:b1:ac:f0:13:fd:aa:d4:6e:
                    dd:99:1b:c8:29:02:64:d4:db:6d:7d:8b:2b:2c:06:
                    93:28:6f:93:2c:fb:3a:9c:2b:0f:41:d6:6c:4c:e9:
                    57:7f:3b:50:5e:f8:60:94:f7:08:39:b4:ef:1e:76:
                    26:54:c0:39:4e:18:b7:c0:e6:25:23:be:de:3f:e0:
                    24:65:42:f3:fa:3b:b8:e0:ba:92:ae:40:53:48:49:
                    af:8f
                Exponent: 65537 (0x10001)
        X509v3 extensions:
            X509v3 Basic Constraints: 
                CA:FALSE
            X509v3 Subject Key Identifier: 
                C5:27:1E:56:9B:CF:1A:2F:10:C8:E4:7F:F8:2D:F0:8D:E8:98:94:A1
            X509v3 Authority Key Identifier: 
                keyid:47:26:F2:9C:67:1C:4A:51:66:09:CE:1F:F6:EC:75:51:DB:97:23:6C

    Signature Algorithm: sha256WithRSAEncryption
         6a:e5:a4:87:b9:d4:51:75:56:90:25:3a:76:dd:1c:88:b1:d1:
         be:1e:80:c8:e1:f5:63:48:07:c2:bd:5a:47:d2:9c:b8:44:10:
         8e:4f:7d:cb:f1:fa:b3:e8:8f:e2:0c:1b:ac:3d:d6:50:b1:71:
         aa:a1:a3:a1:3e:98:00:b9:ce:d4:69:db:04:72:04:47:f5:76:
         a7:e5:a6:ef:47:e9:69:5a:64:ec:f1:8e:ef:ed:f9:f8:2a:be:
         ab:a0:f3:a3:f4:13:e2:02:2d:e7:d6:d2:bc:5e:9e:86:17:79:
         86:53:76:9f:dc:e0:2b:e4:8b:53:16:a8:f5:be:8b:c9:e8:f8:
         77:e1:4c:0f:c9:c8:fd:88:5a:83:1d:e6:c7:c0:c1:05:6a:44:
         8a:8b:52:d5:2a:97:04:09:ed:83:55:1c:af:5a:95:be:fc:5e:
         56:db:df:8a:7a:9f:0f:fb:63:54:19:eb:03:d3:53:70:01:d6:
         0a:43:0f:a6:94:2f:75:9c:76:df:c7:3b:f1:ba:0f:e1:21:d9:
         c5:67:ff:49:ab:9c:37:b1:87:1d:cf:fe:e2:49:b8:5f:c0:ed:
         a8:b3:ec:ea:1c:73:39:83:db:d9:bd:81:e7:8f:74:6c:e6:fd:
         38:0e:57:82:b9:dd:9e:0e:48:73:02:0a:7f:c8:55:06:2a:14:
         ca:29:52:5c
-----BEGIN CERTIFICATE-----
MIIDZjCCAk6gAwIBAgIBATANBgkqhkiG9w0BAQsFADBXMQswCQYDVQQGEwJVUzEO
MAwGA1UECAwFVW5zZXQxDjAMBgNVBAcMBVVuc2V0MQ4wDAYDVQQKDAVVbnNldDEY
MBYGA1UEAwwPd3d3LmV4YW1wbGUuY29tMB4XDTE1MDkyNTE1MjA0NloXDTI1MDky
MjE1MjA0NlowRzELMAkGA1UEBhMCVVMxDjAMBgNVBAgMBVVuc2V0MQ4wDAYDVQQK
DAVVbnNldDEYMBYGA1UEAwwPd3d3LmV4YW1wbGUuY29tMIIBIjANBgkqhkiG9w0B
AQEFAAOCAQ8AMIIBCgKCAQEA22j+cKbfq+EGwY4HtVB3E497aCZdoibkP0roHEuL
vHKIjg2ZM2JUpXDUAk9w4MNrEhh0nxhL4TQtHpaTdmV2GeGAIz2iWBIBIbDLFyEV
hsKkmKxRfMeSZHYR9foW8HHAXbCSkAlOPWq6r9v6NNf5rnsqnOJu6ZcTwvEle6Ti
RQ3JnoUbuygwzni3FpsaDj5Lh/Mb/IrIMFDXMUHegtzPAP8Qc4mpwfNKyG2gsazw
E/2q1G7dmRvIKQJk1NttfYsrLAaTKG+TLPs6nCsPQdZsTOlXfztQXvhglPcIObTv
HnYmVMA5Thi3wOYlI77eP+AkZULz+ju44LqSrkBTSEmvjwIDAQABo00wSzAJBgNV
HRMEAjAAMB0GA1UdDgQWBBTFJx5Wm88aLxDI5H/4LfCN6JiUoTAfBgNVHSMEGDAW
gBRHJvKcZxxKUWYJzh/27HVR25cjbDANBgkqhkiG9w0BAQsFAAOCAQEAauWkh7nU
UXVWkCU6dt0ciLHRvh6AyOH1Y0gHwr1aR9KcuEQQjk99y/H6s+iP4gwbrD3WULFx
qqGjoT6YALnO1GnbBHIER/V2p+Wm70fpaVpk7PGO7+35+Cq+q6Dzo/QT4gIt59bS
vF6ehhd5hlN2n9zgK+SLUxao9b6Lyej4d+FMD8nI/Yhagx3mx8DBBWpEiotS1SqX
BAntg1Ucr1qVvvxeVtvfinqfD/tjVBnrA9NTcAHWCkMPppQvdZx238c78boP4SHZ
xWf/SaucN7GHHc/+4km4X8DtqLPs6hxzOYPb2b2B5490bOb9OA5Xgrndng5IcwIK
f8hVBioUyilSXA==
-----END CERTIFICATE-----
